; Function Attrs: mustprogress nofree norecurse nosync nounwind memory(readwrite, inaccessiblemem: none) uwtable
define dso_local void @_ZN5clang12InitListExpr14setArrayFillerEPNS_4ExprE(ptr nocapture noundef nonnull align 8 dereferenceable(64) %0, ptr noundef %1) local_unnamed_addr #11 align 2 {
  %3 = getelementptr inbounds nuw i8, ptr %0, i64 56
  %4 = ptrtoint ptr %1 to i64
  %5 = and i64 %4, -3
  store i64 %5, ptr %3, align 8
  %6 = getelementptr inbounds nuw i8, ptr %0, i64 16
  %7 = load ptr, ptr %6, align 8
  %8 = getelementptr inbounds i8, ptr %0, i64 24
  %9 = load ptr, ptr %8, align 8
  %10 = ptrtoint ptr %9 to i64
  %11 = ptrtoint ptr %7 to i64
  %12 = sub i64 %10, %11
  %13 = and i64 %12, 34359738360
  %.not9 = icmp eq i64 %13, 0
  br i1 %.not9, label %._crit_edge, label %.lr.ph.preheader

.lr.ph.preheader:                                 ; preds = %2
  %14 = lshr exact i64 %12, 3
  %15 = and i64 %14, 4294967295
  br label %.lr.ph

.lr.ph:                                           ; preds = %.lr.ph.preheader, %20
  %indvars.iv = phi i64 [ 0, %.lr.ph.preheader ], [ %indvars.iv.next, %20 ]
  %16 = getelementptr inbounds ptr, ptr %7, i64 %indvars.iv
  %17 = load ptr, ptr %16, align 8
  %18 = icmp eq ptr %17, null
  br i1 %18, label %19, label %20

19:                                               ; preds = %.lr.ph
  store ptr %1, ptr %16, align 8
  br label %20

20:                                               ; preds = %.lr.ph, %19
  %indvars.iv.next = add nuw nsw i64 %indvars.iv, 1
  %.not = icmp eq i64 %indvars.iv.next, %15
  br i1 %.not, label %._crit_edge, label %.lr.ph, !llvm.loop !138

._crit_edge:                                      ; preds = %20, %2
  ret void
}